; ModuleID = '21/872.c'
source_filename = "21/872.c"
target datalayout = "e-m:e-p270:32:32-p271:32:32-p272:64:64-i64:64-f80:128-n8:16:32:64-S128"
target triple = "x86_64-pc-linux-gnu"

@.str = private unnamed_addr constant [3 x i8] c"%d\00", align 1
@.str.1 = private unnamed_addr constant [2 x i8] c"\0A\00", align 1
@.str.2 = private unnamed_addr constant [6 x i8] c"%d,%d\00", align 1

; Function Attrs: noinline nounwind uwtable
define dso_local void @main() #0 {
  %1 = alloca i32, align 4
  %2 = alloca i32, align 4
  %3 = alloca i32, align 4
  %4 = alloca i32, align 4
  %5 = alloca i32, align 4
  %6 = alloca float, align 4
  %7 = alloca float, align 4
  %8 = alloca float, align 4
  %9 = alloca [300 x i32], align 16
  store i32 0, i32* %5, align 4
  %10 = call i32 (i8*, ...) @__isoc99_scanf(i8* getelementptr inbounds ([3 x i8], [3 x i8]* @.str, i64 0, i64 0), i32* %1)
  store i32 0, i32* %2, align 4
  br label %11

11:                                               ; preds = %20, %0
  %12 = load i32, i32* %2, align 4
  %13 = load i32, i32* %1, align 4
  %14 = icmp slt i32 %12, %13
  br i1 %14, label %15, label %23

15:                                               ; preds = %11
  %16 = load i32, i32* %2, align 4
  %17 = sext i32 %16 to i64
  %18 = getelementptr inbounds [300 x i32], [300 x i32]* %9, i64 0, i64 %17
  %19 = call i32 (i8*, ...) @__isoc99_scanf(i8* getelementptr inbounds ([3 x i8], [3 x i8]* @.str, i64 0, i64 0), i32* %18)
  br label %20

20:                                               ; preds = %15
  %21 = load i32, i32* %2, align 4
  %22 = add nsw i32 %21, 1
  store i32 %22, i32* %2, align 4
  br label %11

23:                                               ; preds = %11
  %24 = call i32 (i8*, ...) @printf(i8* getelementptr inbounds ([2 x i8], [2 x i8]* @.str.1, i64 0, i64 0))
  store i32 0, i32* %3, align 4
  br label %25

25:                                               ; preds = %72, %23
  %26 = load i32, i32* %3, align 4
  %27 = load i32, i32* %1, align 4
  %28 = sub nsw i32 %27, 1
  %29 = icmp slt i32 %26, %28
  br i1 %29, label %30, label %75

30:                                               ; preds = %25
  store i32 0, i32* %2, align 4
  br label %31

31:                                               ; preds = %68, %30
  %32 = load i32, i32* %2, align 4
  %33 = load i32, i32* %1, align 4
  %34 = sub nsw i32 %33, 1
  %35 = load i32, i32* %3, align 4
  %36 = sub nsw i32 %34, %35
  %37 = icmp slt i32 %32, %36
  br i1 %37, label %38, label %71

38:                                               ; preds = %31
  %39 = load i32, i32* %2, align 4
  %40 = sext i32 %39 to i64
  %41 = getelementptr inbounds [300 x i32], [300 x i32]* %9, i64 0, i64 %40
  %42 = load i32, i32* %41, align 4
  %43 = load i32, i32* %2, align 4
  %44 = add nsw i32 %43, 1
  %45 = sext i32 %44 to i64
  %46 = getelementptr inbounds [300 x i32], [300 x i32]* %9, i64 0, i64 %45
  %47 = load i32, i32* %46, align 4
  %48 = icmp sgt i32 %42, %47
  br i1 %48, label %49, label %67

49:                                               ; preds = %38
  %50 = load i32, i32* %2, align 4
  %51 = sext i32 %50 to i64
  %52 = getelementptr inbounds [300 x i32], [300 x i32]* %9, i64 0, i64 %51
  %53 = load i32, i32* %52, align 4
  store i32 %53, i32* %4, align 4
  %54 = load i32, i32* %2, align 4
  %55 = add nsw i32 %54, 1
  %56 = sext i32 %55 to i64
  %57 = getelementptr inbounds [300 x i32], [300 x i32]* %9, i64 0, i64 %56
  %58 = load i32, i32* %57, align 4
  %59 = load i32, i32* %2, align 4
  %60 = sext i32 %59 to i64
  %61 = getelementptr inbounds [300 x i32], [300 x i32]* %9, i64 0, i64 %60
  store i32 %58, i32* %61, align 4
  %62 = load i32, i32* %4, align 4
  %63 = load i32, i32* %2, align 4
  %64 = add nsw i32 %63, 1
  %65 = sext i32 %64 to i64
  %66 = getelementptr inbounds [300 x i32], [300 x i32]* %9, i64 0, i64 %65
  store i32 %62, i32* %66, align 4
  br label %67

67:                                               ; preds = %49, %38
  br label %68

68:                                               ; preds = %67
  %69 = load i32, i32* %2, align 4
  %70 = add nsw i32 %69, 1
  store i32 %70, i32* %2, align 4
  br label %31

71:                                               ; preds = %31
  br label %72

72:                                               ; preds = %71
  %73 = load i32, i32* %3, align 4
  %74 = add nsw i32 %73, 1
  store i32 %74, i32* %3, align 4
  br label %25

75:                                               ; preds = %25
  store i32 0, i32* %2, align 4
  br label %76

76:                                               ; preds = %87, %75
  %77 = load i32, i32* %2, align 4
  %78 = load i32, i32* %1, align 4
  %79 = icmp slt i32 %77, %78
  br i1 %79, label %80, label %90

80:                                               ; preds = %76
  %81 = load i32, i32* %5, align 4
  %82 = load i32, i32* %2, align 4
  %83 = sext i32 %82 to i64
  %84 = getelementptr inbounds [300 x i32], [300 x i32]* %9, i64 0, i64 %83
  %85 = load i32, i32* %84, align 4
  %86 = add nsw i32 %81, %85
  store i32 %86, i32* %5, align 4
  br label %87

87:                                               ; preds = %80
  %88 = load i32, i32* %2, align 4
  %89 = add nsw i32 %88, 1
  store i32 %89, i32* %2, align 4
  br label %76

90:                                               ; preds = %76
  %91 = load i32, i32* %5, align 4
  %92 = sitofp i32 %91 to float
  %93 = load i32, i32* %1, align 4
  %94 = sitofp i32 %93 to float
  %95 = fdiv float %92, %94
  store float %95, float* %6, align 4
  %96 = load float, float* %6, align 4
  %97 = getelementptr inbounds [300 x i32], [300 x i32]* %9, i64 0, i64 0
  %98 = load i32, i32* %97, align 16
  %99 = sitofp i32 %98 to float
  %100 = fsub float %96, %99
  store float %100, float* %7, align 4
  %101 = load i32, i32* %1, align 4
  %102 = sub nsw i32 %101, 1
  %103 = sext i32 %102 to i64
  %104 = getelementptr inbounds [300 x i32], [300 x i32]* %9, i64 0, i64 %103
  %105 = load i32, i32* %104, align 4
  %106 = sitofp i32 %105 to float
  %107 = load float, float* %6, align 4
  %108 = fsub float %106, %107
  store float %108, float* %8, align 4
  %109 = load float, float* %7, align 4
  %110 = load float, float* %8, align 4
  %111 = fcmp olt float %109, %110
  br i1 %111, label %112, label %119

112:                                              ; preds = %90
  %113 = load i32, i32* %1, align 4
  %114 = sub nsw i32 %113, 1
  %115 = sext i32 %114 to i64
  %116 = getelementptr inbounds [300 x i32], [300 x i32]* %9, i64 0, i64 %115
  %117 = load i32, i32* %116, align 4
  %118 = call i32 (i8*, ...) @printf(i8* getelementptr inbounds ([3 x i8], [3 x i8]* @.str, i64 0, i64 0), i32 %117)
  br label %119

119:                                              ; preds = %112, %90
  %120 = load float, float* %7, align 4
  %121 = load float, float* %8, align 4
  %122 = fcmp ogt float %120, %121
  br i1 %122, label %123, label %127

123:                                              ; preds = %119
  %124 = getelementptr inbounds [300 x i32], [300 x i32]* %9, i64 0, i64 0
  %125 = load i32, i32* %124, align 16
  %126 = call i32 (i8*, ...) @printf(i8* getelementptr inbounds ([3 x i8], [3 x i8]* @.str, i64 0, i64 0), i32 %125)
  br label %127

127:                                              ; preds = %123, %119
  %128 = load float, float* %7, align 4
  %129 = load float, float* %8, align 4
  %130 = fcmp oeq float %128, %129
  br i1 %130, label %131, label %140

131:                                              ; preds = %127
  %132 = getelementptr inbounds [300 x i32], [300 x i32]* %9, i64 0, i64 0
  %133 = load i32, i32* %132, align 16
  %134 = load i32, i32* %1, align 4
  %135 = sub nsw i32 %134, 1
  %136 = sext i32 %135 to i64
  %137 = getelementptr inbounds [300 x i32], [300 x i32]* %9, i64 0, i64 %136
  %138 = load i32, i32* %137, align 4
  %139 = call i32 (i8*, ...) @printf(i8* getelementptr inbounds ([6 x i8], [6 x i8]* @.str.2, i64 0, i64 0), i32 %133, i32 %138)
  br label %140

140:                                              ; preds = %131, %127
  ret void
}

declare dso_local i32 @__isoc99_scanf(i8*, ...) #1

declare dso_local i32 @printf(i8*, ...) #1


!llvm.module.flags = !{!0}
!llvm.ident = !{!1}

!0 = !{i32 1, !"wchar_size", i32 4}
!1 = !{!"clang version 10.0.0-4ubuntu1 "}
